; ModuleID = '47/5744.c'
source_filename = "47/5744.c"
target datalayout = "e-m:e-p270:32:32-p271:32:32-p272:64:64-i64:64-f80:128-n8:16:32:64-S128"
target triple = "x86_64-pc-linux-gnu"

@.str = private unnamed_addr constant [3 x i8] c"%d\00", align 1
@.str.1 = private unnamed_addr constant [4 x i8] c"%d \00", align 1

; Function Attrs: noinline nounwind uwtable
define dso_local void @main() #0 {
  %1 = alloca [100 x i32], align 16
  %2 = alloca i32, align 4
  %3 = alloca i32, align 4
  %4 = alloca i32*, align 8
  %5 = alloca i32*, align 8
  %6 = alloca i32*, align 8
  %7 = alloca i32, align 4
  %8 = alloca i32, align 4
  %9 = call i32 (i8*, ...) @__isoc99_scanf(i8* getelementptr inbounds ([3 x i8], [3 x i8]* @.str, i64 0, i64 0), i32* %2)
  store i32 0, i32* %3, align 4
  br label %10

10:                                               ; preds = %20, %0
  %11 = load i32, i32* %3, align 4
  %12 = load i32, i32* %2, align 4
  %13 = icmp slt i32 %11, %12
  br i1 %13, label %14, label %23

14:                                               ; preds = %10
  %15 = getelementptr inbounds [100 x i32], [100 x i32]* %1, i64 0, i64 0
  %16 = load i32, i32* %3, align 4
  %17 = sext i32 %16 to i64
  %18 = getelementptr inbounds i32, i32* %15, i64 %17
  %19 = call i32 (i8*, ...) @__isoc99_scanf(i8* getelementptr inbounds ([3 x i8], [3 x i8]* @.str, i64 0, i64 0), i32* %18)
  br label %20

20:                                               ; preds = %14
  %21 = load i32, i32* %3, align 4
  %22 = add nsw i32 %21, 1
  store i32 %22, i32* %3, align 4
  br label %10

23:                                               ; preds = %10
  %24 = load i32, i32* %2, align 4
  %25 = sub nsw i32 %24, 1
  %26 = sdiv i32 %25, 2
  store i32 %26, i32* %8, align 4
  %27 = getelementptr inbounds [100 x i32], [100 x i32]* %1, i64 0, i64 0
  store i32* %27, i32** %4, align 8
  %28 = getelementptr inbounds [100 x i32], [100 x i32]* %1, i64 0, i64 0
  %29 = load i32, i32* %2, align 4
  %30 = sext i32 %29 to i64
  %31 = getelementptr inbounds i32, i32* %28, i64 %30
  %32 = getelementptr inbounds i32, i32* %31, i64 -1
  store i32* %32, i32** %5, align 8
  %33 = getelementptr inbounds [100 x i32], [100 x i32]* %1, i64 0, i64 0
  %34 = load i32, i32* %8, align 4
  %35 = sext i32 %34 to i64
  %36 = getelementptr inbounds i32, i32* %33, i64 %35
  store i32* %36, i32** %6, align 8
  br label %37

37:                                               ; preds = %49, %23
  %38 = load i32*, i32** %4, align 8
  %39 = load i32*, i32** %6, align 8
  %40 = icmp ule i32* %38, %39
  br i1 %40, label %41, label %54

41:                                               ; preds = %37
  %42 = load i32*, i32** %4, align 8
  %43 = load i32, i32* %42, align 4
  store i32 %43, i32* %7, align 4
  %44 = load i32*, i32** %5, align 8
  %45 = load i32, i32* %44, align 4
  %46 = load i32*, i32** %4, align 8
  store i32 %45, i32* %46, align 4
  %47 = load i32, i32* %7, align 4
  %48 = load i32*, i32** %5, align 8
  store i32 %47, i32* %48, align 4
  br label %49

49:                                               ; preds = %41
  %50 = load i32*, i32** %4, align 8
  %51 = getelementptr inbounds i32, i32* %50, i32 1
  store i32* %51, i32** %4, align 8
  %52 = load i32*, i32** %5, align 8
  %53 = getelementptr inbounds i32, i32* %52, i32 -1
  store i32* %53, i32** %5, align 8
  br label %37

54:                                               ; preds = %37
  store i32 0, i32* %3, align 4
  br label %55

55:                                               ; preds = %67, %54
  %56 = load i32, i32* %3, align 4
  %57 = load i32, i32* %2, align 4
  %58 = sub nsw i32 %57, 1
  %59 = icmp slt i32 %56, %58
  br i1 %59, label %60, label %70

60:                                               ; preds = %55
  %61 = getelementptr inbounds [100 x i32], [100 x i32]* %1, i64 0, i64 0
  %62 = load i32, i32* %3, align 4
  %63 = sext i32 %62 to i64
  %64 = getelementptr inbounds i32, i32* %61, i64 %63
  %65 = load i32, i32* %64, align 4
  %66 = call i32 (i8*, ...) @printf(i8* getelementptr inbounds ([4 x i8], [4 x i8]* @.str.1, i64 0, i64 0), i32 %65)
  br label %67

67:                                               ; preds = %60
  %68 = load i32, i32* %3, align 4
  %69 = add nsw i32 %68, 1
  store i32 %69, i32* %3, align 4
  br label %55

70:                                               ; preds = %55
  %71 = getelementptr inbounds [100 x i32], [100 x i32]* %1, i64 0, i64 0
  %72 = load i32, i32* %2, align 4
  %73 = sext i32 %72 to i64
  %74 = getelementptr inbounds i32, i32* %71, i64 %73
  %75 = getelementptr inbounds i32, i32* %74, i64 -1
  %76 = load i32, i32* %75, align 4
  %77 = call i32 (i8*, ...) @printf(i8* getelementptr inbounds ([3 x i8], [3 x i8]* @.str, i64 0, i64 0), i32 %76)
  ret void
}

declare dso_local i32 @__isoc99_scanf(i8*, ...) #1

declare dso_local i32 @printf(i8*, ...) #1


!llvm.module.flags = !{!0}
!llvm.ident = !{!1}

!0 = !{i32 1, !"wchar_size", i32 4}
!1 = !{!"clang version 10.0.0-4ubuntu1 "}
