; ModuleID = 'source-C-CXX/46/5744.c'
source_filename = "source-C-CXX/46/5744.c"
target datalayout = "e-m:e-p270:32:32-p271:32:32-p272:64:64-i64:64-f80:128-n8:16:32:64-S128"
target triple = "x86_64-pc-linux-gnu"

@.str = private unnamed_addr constant [3 x i8] c"%d\00", align 1
@.str.1 = private unnamed_addr constant [4 x i8] c"%d \00", align 1

; Function Attrs: nofree nounwind sspstrong uwtable
define dso_local void @main() local_unnamed_addr #0 {
  %1 = alloca [100 x i32], align 16
  %2 = alloca i32, align 4
  %3 = bitcast [100 x i32]* %1 to i8*
  call void @llvm.lifetime.start.p0i8(i64 400, i8* nonnull %3) #3
  %4 = bitcast i32* %2 to i8*
  call void @llvm.lifetime.start.p0i8(i64 4, i8* nonnull %4) #3
  %5 = call i32 (i8*, ...) @__isoc99_scanf(i8* getelementptr inbounds ([3 x i8], [3 x i8]* @.str, i64 0, i64 0), i32* nonnull %2)
  %6 = load i32, i32* %2, align 4, !tbaa !5
  %7 = icmp sgt i32 %6, 0
  br i1 %7, label %8, label %16

8:                                                ; preds = %0, %8
  %9 = phi i64 [ %12, %8 ], [ 0, %0 ]
  %10 = getelementptr inbounds [100 x i32], [100 x i32]* %1, i64 0, i64 %9
  %11 = call i32 (i8*, ...) @__isoc99_scanf(i8* getelementptr inbounds ([3 x i8], [3 x i8]* @.str, i64 0, i64 0), i32* nonnull %10)
  %12 = add nuw nsw i64 %9, 1
  %13 = load i32, i32* %2, align 4, !tbaa !5
  %14 = sext i32 %13 to i64
  %15 = icmp slt i64 %12, %14
  br i1 %15, label %8, label %16, !llvm.loop !9

16:                                               ; preds = %8, %0
  %17 = phi i32 [ %6, %0 ], [ %13, %8 ]
  %18 = sext i32 %17 to i64
  %19 = add nsw i32 %17, -1
  %20 = sdiv i32 %19, 2
  %21 = sext i32 %20 to i64
  %22 = getelementptr inbounds [100 x i32], [100 x i32]* %1, i64 0, i64 %21
  %23 = icmp slt i32 %17, 0
  br i1 %23, label %49, label %24

24:                                               ; preds = %16
  %25 = getelementptr inbounds [100 x i32], [100 x i32]* %1, i64 0, i64 %18
  %26 = getelementptr inbounds [100 x i32], [100 x i32]* %1, i64 0, i64 0
  br label %29

27:                                               ; preds = %29
  %28 = icmp sgt i32 %17, 1
  br i1 %28, label %37, label %49

29:                                               ; preds = %24, %29
  %30 = phi i32* [ %32, %29 ], [ %25, %24 ]
  %31 = phi i32* [ %35, %29 ], [ %26, %24 ]
  %32 = getelementptr inbounds i32, i32* %30, i64 -1
  %33 = load i32, i32* %31, align 4, !tbaa !5
  %34 = load i32, i32* %32, align 4, !tbaa !5
  store i32 %34, i32* %31, align 4, !tbaa !5
  store i32 %33, i32* %32, align 4, !tbaa !5
  %35 = getelementptr inbounds i32, i32* %31, i64 1
  %36 = icmp ugt i32* %35, %22
  br i1 %36, label %27, label %29, !llvm.loop !11

37:                                               ; preds = %27, %37
  %38 = phi i64 [ %42, %37 ], [ 0, %27 ]
  %39 = getelementptr inbounds [100 x i32], [100 x i32]* %1, i64 0, i64 %38
  %40 = load i32, i32* %39, align 4, !tbaa !5
  %41 = call i32 (i8*, ...) @printf(i8* nonnull dereferenceable(1) getelementptr inbounds ([4 x i8], [4 x i8]* @.str.1, i64 0, i64 0), i32 %40)
  %42 = add nuw nsw i64 %38, 1
  %43 = load i32, i32* %2, align 4, !tbaa !5
  %44 = add nsw i32 %43, -1
  %45 = sext i32 %44 to i64
  %46 = icmp slt i64 %42, %45
  br i1 %46, label %37, label %47, !llvm.loop !12

47:                                               ; preds = %37
  %48 = sext i32 %43 to i64
  br label %49

49:                                               ; preds = %16, %47, %27
  %50 = phi i64 [ %48, %47 ], [ %18, %27 ], [ %18, %16 ]
  %51 = getelementptr inbounds [100 x i32], [100 x i32]* %1, i64 0, i64 %50
  %52 = getelementptr inbounds i32, i32* %51, i64 -1
  %53 = load i32, i32* %52, align 4, !tbaa !5
  %54 = call i32 (i8*, ...) @printf(i8* nonnull dereferenceable(1) getelementptr inbounds ([3 x i8], [3 x i8]* @.str, i64 0, i64 0), i32 %53)
  call void @llvm.lifetime.end.p0i8(i64 4, i8* nonnull %4) #3
  call void @llvm.lifetime.end.p0i8(i64 400, i8* nonnull %3) #3
  ret void
}

; Function Attrs: argmemonly mustprogress nofree nosync nounwind willreturn
declare void @llvm.lifetime.start.p0i8(i64 immarg, i8* nocapture) #1

; Function Attrs: nofree nounwind
declare noundef i32 @__isoc99_scanf(i8* nocapture noundef readonly, ...) local_unnamed_addr #2

; Function Attrs: nofree nounwind
declare noundef i32 @printf(i8* nocapture noundef readonly, ...) local_unnamed_addr #2

; Function Attrs: argmemonly mustprogress nofree nosync nounwind willreturn
declare void @llvm.lifetime.end.p0i8(i64 immarg, i8* nocapture) #1


!llvm.module.flags = !{!0, !1, !2, !3}
!llvm.ident = !{!4}

!0 = !{i32 1, !"wchar_size", i32 4}
!1 = !{i32 7, !"PIC Level", i32 2}
!2 = !{i32 7, !"PIE Level", i32 2}
!3 = !{i32 7, !"uwtable", i32 1}
!4 = !{!"clang version 13.0.0"}
!5 = !{!6, !6, i64 0}
!6 = !{!"int", !7, i64 0}
!7 = !{!"omnipotent char", !8, i64 0}
!8 = !{!"Simple C/C++ TBAA"}
!9 = distinct !{!9, !10}
!10 = !{!"llvm.loop.mustprogress"}
!11 = distinct !{!11, !10}
!12 = distinct !{!12, !10}
